; Function Attrs: nounwind uwtable
define dso_local void @sdiffCommand(ptr noundef %0) local_unnamed_addr #0 {
  %2 = getelementptr inbounds nuw i8, ptr %0, i64 96
  %3 = load ptr, ptr %2, align 8, !tbaa !72
  %4 = getelementptr inbounds nuw i8, ptr %3, i64 8
  %5 = getelementptr inbounds nuw i8, ptr %0, i64 88
  %6 = load i32, ptr %5, align 8, !tbaa !74
  %7 = add nsw i32 %6, -1
  tail call void @sunionDiffGenericCommand(ptr noundef %0, ptr noundef nonnull %4, i32 noundef %7, ptr noundef null, i32 noundef 1)
  ret void
}